Certificate:
    Data:
        Version: 3 (0x2)
        Serial Number: 2 (0x2)
        Signature Algorithm: sha1WithRSAEncryption
        Issuer: C=ie, ST=Some-State, L=dublin, O=Internet Widgits Pty Ltd, CN=paddy
        Validity
            Not Before: Mar 30 17:13:49 2011 GMT
            Not After : Mar 29 17:13:49 2012 GMT
        Subject: C=ie, ST=Some-State, O=alice, CN=alice/emailAddress=padmon29@gmail.com
        Subject Public Key Info:
            Public Key Algorithm: rsaEncryption
            RSA Public Key: (1024 bit)
                Modulus (1024 bit):
                    00:bb:31:f5:e3:b6:39:bc:8c:26:75:a0:c2:f1:75:
                    8e:5e:1e:59:d6:db:17:57:06:aa:76:75:ac:34:7c:
                    69:05:30:50:dc:c8:2a:17:48:e3:b6:28:1c:02:cb:
                    d0:2c:ea:12:d4:f9:40:a6:3e:69:62:4d:65:a7:5b:
                    b9:a8:0b:79:a9:9b:1a:7b:c9:9b:09:78:30:09:b1:
                    0b:c4:37:1d:31:ed:83:95:2a:a8:30:b8:52:2b:91:
                    52:d9:0a:b8:46:8c:76:fa:5e:98:d1:ed:d1:0b:17:
                    0a:f1:f4:f5:91:26:d9:10:38:24:08:99:80:fd:e2:
                    a4:8b:c5:2a:49:f6:0a:4d:21
                Exponent: 65537 (0x10001)
        X509v3 extensions:
            X509v3 Basic Constraints: 
                CA:FALSE
            Netscape Comment: 
                OpenSSL Generated Certificate
            X509v3 Subject Key Identifier: 
                17:C6:10:4F:3B:43:32:5D:41:4D:80:B1:06:EF:64:FD:FD:A9:88:11
            X509v3 Authority Key Identifier: 
                keyid:81:68:EC:BD:C7:72:7E:5A:A9:7B:F3:DD:DB:6F:AD:B2:4B:36:CA:A7

    Signature Algorithm: sha1WithRSAEncryption
        0e:72:4a:99:a1:9b:8e:1d:1b:89:5f:0b:f0:25:a7:83:03:89:
        38:b0:05:ab:6b:31:0a:88:b2:b2:40:4b:dc:65:92:4b:22:7f:
        56:d5:c6:b0:23:9d:0b:7f:63:58:9f:d7:14:12:21:0d:ef:39:
        c4:f0:33:de:b1:1b:b4:2f:ed:79:3c:ef:f8:e6:af:bd:49:8c:
        cc:5f:ce:17:7d:17:cd:ce:f4:e9:9c:71:e3:82:64:1a:a1:11:
        3a:65:fe:02:78:20:1d:2f:6d:b2:01:96:58:b9:26:5d:a4:10:
        4a:d3:10:2f:91:a4:a7:58:12:81:26:01:34:74:c5:9c:cd:5a:
        97:69
-----BEGIN CERTIFICATE-----
MIICvDCCAiWgAwIBAgIBAjANBgkqhkiG9w0BAQUFADBmMQswCQYDVQQGEwJpZTET
MBEGA1UECBMKU29tZS1TdGF0ZTEPMA0GA1UEBxMGZHVibGluMSEwHwYDVQQKExhJ
bnRlcm5ldCBXaWRnaXRzIFB0eSBMdGQxDjAMBgNVBAMTBXBhZGR5MB4XDTExMDMz
MDE3MTM0OVoXDTEyMDMyOTE3MTM0OVowZTELMAkGA1UEBhMCaWUxEzARBgNVBAgT
ClNvbWUtU3RhdGUxDjAMBgNVBAoTBWFsaWNlMQ4wDAYDVQQDEwVhbGljZTEhMB8G
CSqGSIb3DQEJARYScGFkbW9uMjlAZ21haWwuY29tMIGfMA0GCSqGSIb3DQEBAQUA
A4GNADCBiQKBgQC7MfXjtjm8jCZ1oMLxdY5eHlnW2xdXBqp2daw0fGkFMFDcyCoX
SOO2KBwCy9As6hLU+UCmPmliTWWnW7moC3mpmxp7yZsJeDAJsQvENx0x7YOVKqgw
uFIrkVLZCrhGjHb6XpjR7dELFwrx9PWRJtkQOCQImYD94qSLxSpJ9gpNIQIDAQAB
o3sweTAJBgNVHRMEAjAAMCwGCWCGSAGG+EIBDQQfFh1PcGVuU1NMIEdlbmVyYXRl
ZCBDZXJ0aWZpY2F0ZTAdBgNVHQ4EFgQUF8YQTztDMl1BTYCxBu9k/f2piBEwHwYD
VR0jBBgwFoAUgWjsvcdyflqpe/Pd22+tsks2yqcwDQYJKoZIhvcNAQEFBQADgYEA
DnJKmaGbjh0biV8L8CWngwOJOLAFq2sxCoiyskBL3GWSSyJ/VtXGsCOdC39jWJ/X
FBIhDe85xPAz3rEbtC/teTzv+OavvUmMzF/OF30Xzc706Zxx44JkGqEROmX+Angg
HS9tsgGWWLkmXaQQStMQL5Gkp1gSgSYBNHTFnM1al2k=
-----END CERTIFICATE-----
